target datalayout = "e-m:e-p270:32:32-p271:32:32-p272:64:64-i64:64-i128:128-f80:128-n8:16:32:64-S128"
target triple = "x86_64-pc-linux-gnu"

@.str.26 = private unnamed_addr constant [11 x i8] c"export %p\0A\00", align 1
@.str.27 = private unnamed_addr constant [18 x i8] c"export result %d\0A\00", align 1

; Function Attrs: nounwind uwtable
define internal i32 @key_to_params(ptr noundef %0, ptr noundef %1, ptr noundef %2, i32 noundef %3) #0 {
  %5 = alloca i32, align 4
  %6 = alloca ptr, align 8
  %7 = alloca ptr, align 8
  %8 = alloca ptr, align 8
  %9 = alloca i32, align 4
  store ptr %0, ptr %6, align 8, !tbaa !3
  store ptr %1, ptr %7, align 8, !tbaa !11
  store ptr %2, ptr %8, align 8, !tbaa !7
  store i32 %3, ptr %9, align 4, !tbaa !9
  %10 = load ptr, ptr %6, align 8, !tbaa !3
  %11 = icmp eq ptr %10, null
  br i1 %11, label %12, label %13

12:                                               ; preds = %4
  store i32 0, ptr %5, align 4
  br label %14

13:                                               ; preds = %4
  store i32 1, ptr %5, align 4
  br label %14

14:                                               ; preds = %13, %12
  %15 = load i32, ptr %5, align 4
  ret i32 %15
}

; Function Attrs: nounwind uwtable
define internal void @debug_print(ptr noundef %0, ...) #0 {
  %2 = alloca ptr, align 8
  store ptr %0, ptr %2, align 8, !tbaa !18
  ret void
}

; Function Attrs: nounwind uwtable
define internal i32 @template_export(ptr noundef %0, i32 noundef %1, ptr noundef %2, ptr noundef %3) #0 {
  %5 = alloca i32, align 4
  %6 = alloca ptr, align 8
  %7 = alloca i32, align 4
  %8 = alloca ptr, align 8
  %9 = alloca ptr, align 8
  %10 = alloca ptr, align 8
  %11 = alloca ptr, align 8
  %12 = alloca i32, align 4
  %13 = alloca i32, align 4
  %14 = alloca i32, align 4
  store ptr %0, ptr %6, align 8, !tbaa !3
  store i32 %1, ptr %7, align 4, !tbaa !9
  store ptr %2, ptr %8, align 8, !tbaa !3
  store ptr %3, ptr %9, align 8, !tbaa !3
  call void @llvm.lifetime.start.p0(i64 8, ptr %10) #4
  call void @llvm.lifetime.start.p0(i64 8, ptr %11) #4
  store ptr null, ptr %11, align 8, !tbaa !7
  call void @llvm.lifetime.start.p0(i64 4, ptr %12) #4
  store i32 0, ptr %12, align 4, !tbaa !9
  %15 = load ptr, ptr %6, align 8, !tbaa !3
  call void (ptr, ...) @debug_print(ptr noundef @.str.26, ptr noundef %15)
  %16 = call i32 @ossl_prov_is_running()
  %17 = icmp ne i32 %16, 0
  br i1 %17, label %18, label %21

18:                                               ; preds = %4
  %19 = load ptr, ptr %6, align 8, !tbaa !3
  %20 = icmp eq ptr %19, null
  br i1 %20, label %21, label %22

21:                                               ; preds = %18, %4
  store i32 0, ptr %5, align 4
  store i32 1, ptr %13, align 4
  br label %67

22:                                               ; preds = %18
  %23 = load i32, ptr %7, align 4, !tbaa !9
  %24 = and i32 %23, 3
  %25 = icmp eq i32 %24, 0
  br i1 %25, label %26, label %27

26:                                               ; preds = %22
  store i32 0, ptr %5, align 4
  store i32 1, ptr %13, align 4
  br label %67

27:                                               ; preds = %22
  %28 = call ptr @OSSL_PARAM_BLD_new()
  store ptr %28, ptr %10, align 8, !tbaa !11
  %29 = load ptr, ptr %10, align 8, !tbaa !11
  %30 = icmp eq ptr %29, null
  br i1 %30, label %31, label %32

31:                                               ; preds = %27
  store i32 0, ptr %5, align 4
  store i32 1, ptr %13, align 4
  br label %67

32:                                               ; preds = %27
  %33 = load i32, ptr %7, align 4, !tbaa !9
  %34 = and i32 %33, 3
  %35 = icmp ne i32 %34, 0
  br i1 %35, label %36, label %51

36:                                               ; preds = %32
  call void @llvm.lifetime.start.p0(i64 4, ptr %14) #4
  %37 = load i32, ptr %7, align 4, !tbaa !9
  %38 = and i32 %37, 1
  %39 = icmp ne i32 %38, 0
  %40 = zext i1 %39 to i32
  store i32 %40, ptr %14, align 4, !tbaa !9
  %41 = load ptr, ptr %6, align 8, !tbaa !3
  %42 = load ptr, ptr %10, align 8, !tbaa !11
  %43 = load i32, ptr %14, align 4, !tbaa !9
  %44 = call i32 @key_to_params(ptr noundef %41, ptr noundef %42, ptr noundef null, i32 noundef %43)
  %45 = icmp ne i32 %44, 0
  br i1 %45, label %47, label %46

46:                                               ; preds = %36
  store i32 2, ptr %13, align 4
  br label %48

47:                                               ; preds = %36
  store i32 0, ptr %13, align 4
  br label %48

48:                                               ; preds = %46, %47
  call void @llvm.lifetime.end.p0(i64 4, ptr %14) #4
  %49 = load i32, ptr %13, align 4
  switch i32 %49, label %67 [
    i32 0, label %50
    i32 2, label %63
  ]

50:                                               ; preds = %48
  br label %51

51:                                               ; preds = %50, %32
  %52 = load ptr, ptr %10, align 8, !tbaa !11
  %53 = call ptr @OSSL_PARAM_BLD_to_param(ptr noundef %52)
  store ptr %53, ptr %11, align 8, !tbaa !7
  %54 = load ptr, ptr %11, align 8, !tbaa !7
  %55 = icmp eq ptr %54, null
  br i1 %55, label %56, label %57

56:                                               ; preds = %51
  br label %63

57:                                               ; preds = %51
  %58 = load ptr, ptr %8, align 8, !tbaa !3
  %59 = load ptr, ptr %11, align 8, !tbaa !7
  %60 = load ptr, ptr %9, align 8, !tbaa !3
  %61 = call i32 %58(ptr noundef %59, ptr noundef %60)
  store i32 %61, ptr %12, align 4, !tbaa !9
  %62 = load ptr, ptr %11, align 8, !tbaa !7
  call void @OSSL_PARAM_free(ptr noundef %62)
  br label %63

63:                                               ; preds = %57, %48, %56
  %64 = load ptr, ptr %10, align 8, !tbaa !11
  call void @OSSL_PARAM_BLD_free(ptr noundef %64)
  %65 = load i32, ptr %12, align 4, !tbaa !9
  call void (ptr, ...) @debug_print(ptr noundef @.str.27, i32 noundef %65)
  %66 = load i32, ptr %12, align 4, !tbaa !9
  store i32 %66, ptr %5, align 4
  store i32 1, ptr %13, align 4
  br label %67

67:                                               ; preds = %63, %48, %31, %26, %21
  call void @llvm.lifetime.end.p0(i64 4, ptr %12) #4
  call void @llvm.lifetime.end.p0(i64 8, ptr %11) #4
  call void @llvm.lifetime.end.p0(i64 8, ptr %10) #4
  %68 = load i32, ptr %5, align 4
  ret i32 %68
}