; Function Attrs: nounwind uwtable
define internal i32 @template_export(ptr noundef readnone captures(address_is_null) %0, i32 noundef %1, ptr noundef readonly captures(none) %2, ptr noundef %3) #0 {
  %5 = tail call i32 @ossl_prov_is_running() #3
  %6 = icmp eq i32 %5, 0
  %7 = icmp eq ptr %0, null
  %or.cond = or i1 %7, %6
  %8 = and i32 %1, 3
  %9 = icmp eq i32 %8, 0
  %or.cond26 = or i1 %9, %or.cond
  br i1 %or.cond26, label %19, label %10

10:                                               ; preds = %4
  %11 = tail call ptr @OSSL_PARAM_BLD_new() #3
  %12 = icmp eq ptr %11, null
  br i1 %12, label %19, label %13

13:                                               ; preds = %10
  %14 = tail call ptr @OSSL_PARAM_BLD_to_param(ptr noundef nonnull %11) #3
  %15 = icmp eq ptr %14, null
  br i1 %15, label %18, label %16

16:                                               ; preds = %13
  %17 = tail call i32 %2(ptr noundef nonnull %14, ptr noundef %3) #3
  tail call void @OSSL_PARAM_free(ptr noundef nonnull %14) #3
  br label %18

18:                                               ; preds = %13, %16
  %.021 = phi i32 [ 0, %13 ], [ %17, %16 ]
  tail call void @OSSL_PARAM_BLD_free(ptr noundef nonnull %11) #3
  br label %19

19:                                               ; preds = %10, %4, %18
  %.0 = phi i32 [ %.021, %18 ], [ 0, %4 ], [ 0, %10 ]
  ret i32 %.0
}